Title: Certificate Revocation List
URL: https://www.puppet.com/docs/puppet/7/server/http_certificate_revocation_list

Puppet.com
Forge
Education


                                    Try Puppet
                                


































        Docs
        






Products
Puppet Enterprise
Open Source Puppet
Bolt
Security Compliance Management
Continuous Delivery
Puppet Development Kit
Puppet DB
Puppet Plugin for VMware



        Support
        






Get
Technical Support Plans
Support Lifecycle Policy
New Puppet Enterprise Customer?



        Community
        






About Puppet
Company
Developer Experience
Community
Puppet Champions
Puppet Test Pilots
Community Calendar
Slack Channel







 









































PRODUCT AND VERSION


      Current product
      










      Current version
      








Puppet  7.34.0

Release notes

Puppet release notes
Puppet  7.34.0Security


Puppet known issues
Puppet Server release notes
Puppet Server known Issues
PuppetDB release notes (link)

Facter release notes
Facter 4.10.0
Facter 4.9.0
Facter 4.8.0
Facter 4.7.1
Facter 4.7.0
Facter 4.6.1
Facter 4.6.0
Facter 4.5.2


Facter known issues
What's new since Puppet 6?
Upgrading from Puppet 6 to Puppet 7

Experimental featuresMsgpack support

Archived documentation



Puppet overview
What is Puppet?
Why use Puppet desired state management?
Key concepts behind Puppet
The Puppet platform 
Puppet platform lifecycle 
Open source Puppet vs Puppet Enterprise (PE)
The Puppet ecosystem
Use cases
Glossary
Navigating the documentation



Set up Puppet

Install Puppet
System requirements
Installing Puppet  
Installing and configuring agents
Manually verify packages
Managing Platform versions



Configure Puppet settings
Puppet settings
Key configuration settings

Puppet's configuration files
puppet.conf: The main config file
environment.conf: Per-environment settings
fileserver.conf: Custom fileserver mount points
puppetdb.conf: PuppetDB server locations
autosign.conf: Basic certificate autosigning 
csr_attributes.yaml: Certificate extensions 
custom_trusted_oid_mapping.yaml: Short names for cert extension OIDs
device.conf: Network hardware access
routes.yaml: Advanced plugin routing


Adding file server mount points
Checking the values of settings
Editing settings on the command line
Configuration Reference



Upgrading
Upgrade Puppet Server

Upgrade agents
Upgrade agents using the puppet_agent module
Upgrade *nix agents
Upgrade Windows agents
Upgrade macOS agents


Upgrade PuppetDB



Environments
About environments
Creating environments
Environment isolation



Directories and files
Code and data directory (codedir)
Config directory (confdir)
Main manifest directory
The modulepath
SSL directory (ssldir)
Cache directory (vardir)


Report reference



Platform components

Puppet Server
About Puppet Server
Deprecated features
Server and agent compatibility
Installing Puppet Server

Configuring Puppet Server
Configuring Puppet Server

Puppet Server configuration files
auth.conf
ca.conf
global.conf
logback.xml
metrics.conf
product.conf
puppetserver.conf
web-routes.conf
webserver.conf


Migrating to the HOCON auth.conf format
Advanced logging configuration
Differing behavior in puppet.conf



Using and extending Puppet Server
Subcommands
Using Ruby gems
Intermediate CA
Infrastructure certificate revocation list (CRL)
External SSL termination

Server metrics
Monitoring Puppet Server metrics
HTTP Client Metrics


Tuning guide
Applying metrics to improve performance
Submitting usage telemetry
Scaling Puppet Server
Restarting Puppet Server"



Developer information
Developer debugging
Running from source
Tracing code events



Puppet Server HTTP API
Puppet Server HTTP API overview
PSON

Puppet v3 API
Catalog
Node
Facts
File Bucket File
File Content
File Metadata
Report



Puppet v4 APICatalog API


CA v1 API
Certificate
Certificate Request
Certificate Status
Certificate Revocation List
Expirations
Certificate Clean


Schemas (JSON)



API endpoints

Metrics API endpoints
v1 metrics
v2 (Jolokia) metrics



Status API endpoints
Services endpoint
Simple endpoint



Administrative API endpoints
Environment cache
JRuby pool



Server-specific Puppet API endpoints
Environment classes
Environment modules
Static file content





Certificate authority and SSL
Puppet Server CA commands
Intermediate CA
Autosigning certificate requests
CSR attributes and certificate extensions
Regenerating certificates in a Puppet deployment
External CA
External SSL termination





Facter  
Facter: CLI
Facter: Core Facts

Custom facts overviewEnvironment facts 

Writing custom facts
External facts
Configuring Facter with facter.conf


PuppetDB

Puppet services and tools
Puppet commands
Running Puppet commands on Windows  

primary Puppet serverAbout Puppet Server

Puppet agent on *nix systems
Puppet agent on Windows
Puppet apply
Puppet device



Puppet reports
Reporting
Report reference
Writing custom report processors
Report format



Life cycle of a Puppet run
Agent-server HTTPS communications
Catalog compilation
Static catalogs 





Using Puppet code
Classifying nodes
Managing environment content with a Puppetfile
Using content from Puppet Forge

Designing system configs (roles and profiles)
The roles and profiles method 
Roles and profiles example 
Designing advanced profiles 
Designing convenient roles 



Separating data (Hiera)
About Hiera  
Getting started with Hiera  
Configuring Hiera
Creating and editing data 
Looking up data with Hiera  
Writing new data backends 

Debugging Hiera
Unexpected values
Common errors


Upgrading to Hiera 5 



Use case examples
Manage NTP
Manage sudo 
Manage DNS
Manage firewall rules
Forge examples





Syntax and settings

The Puppet language
Puppet language overview
Puppet language syntax examples
The Puppet language style guide 
Files and paths on Windows  
Code comments 
Variables
Resources

Resource types
Resource Type Reference (Single-Page)
Built-in types
Optional resource types for Windows
Resource Type: exec
Using exec on Windows  
Resource Type: file
Using file on Windows
Resource Type: filebucket
Resource Type: group
Using user and group on Windows
Resource types overview
Resource Type: notify
Resource Type: package
Using package on Windows  
Resource Type: resources
Resource Type: schedule
Resource Type: service
Using service
Resource Type: stage
Resource Type: tidy
Resource Type: user


Relationships and ordering
Classes
Defined resource types
Bolt tasks
Expressions and operators
Conditional statements and expressions
Function calls
Built-in function reference
Node definitions

Facts and built-in variables
Accessing facts from Puppet code
Built-in variables


Reserved words and acceptable names

Custom resources

Develop types and providers with the Resource APIResource API reference


Low-level method for developing types and providers
Type development
Provider development
Creating resources





Custom functions
Custom functions overview 
Writing custom functions in the Puppet language

Writing custom functions in Ruby
Custom functions in Ruby overview
Ruby function signatures
Using special features in implementation methods
Iterative functions
Refactoring legacy 3.x functions



Deferring a function
Deferred functions overview
Using a template with Deferred values
Write a deferred function to store secrets
Integrations with secret stores





Values, data types, and aliases
Type aliases
Typecasting
Abstract data types
Arrays
Binary
Booleans
Data type syntax
Default
Error data type
Hashes
Numbers
Regular expressions
Resource and class references
Resource types
Sensitive
Strings
Time-related data types
Undef



Templates
Creating templates using Embedded Puppet
Creating templates using Embedded Ruby



Advanced constructs
Iteration and loops
Lambdas
Resource default statements
Resource collectors
Virtual resources
Exported resources
Tags
Run stages



Details of complex behaviors
Containment
Scope
Namespaces and autoloading


Securing sensitive data


Metaparameter reference
Configuration Reference
Built-in function reference

Puppet Man Pages

Core tools
Man Page: puppet agent
Man Page: puppet apply
Man Page: puppet module
Man Page: puppet resource
Man Page: puppet lookup



Occasionally useful
Man Page: puppet config
Man Page: puppet describe
Man Page: puppet device
Man Page: puppet doc
Man Page: puppet help
Man Page: puppet node
Man Page: puppet parser



Niche
Man Page: puppet catalog
Man Page: puppet facts
Man Page: puppet filebucket
Man Page: puppet report







Developing modules

Modules
Modules overview
Plug-ins in modules
Module cheat sheet
Installing and managing modules from the command line
Beginner's guide to writing modules
Module metadata
Documenting modules
Documenting modules with Puppet Strings  
Puppet Strings style guide

Publishing modulesUsing the Forge API

Contributing to Puppet modules


Puppet Development Kit (PDK)
Puppet VSCode extension

PowerShell DSC Resources
Converting DSC Resources
Distributing arbitrary DSC resources
Upgrading Puppet DSC modules 
Troubleshooting DSC Resources 


Ruby API for developing extensions

Certificate Revocation List
The certificate_revocation_list endpoint retrieves a Certificate Revocation List (CRL)
from the primary server. The returned CRL is always in the .pem format.
Find

Get the submitted CRL
GET /puppet-ca/v1/certificate_revocation_list/ca
Accept: text/plain

Supported HTTP Methods
GETSupported Response Formats

text/plain
The returned CRL is always in the .pem format.
Parameters
NoneExamples
Because the returned CRL always looks similar to the human eye, the successful examples are each followed by an openssl
decoding of the CRL PEM file.
Empty revocation list
GET /puppet-ca/v1/certificate_revocation_list/ca

HTTP/1.1 200 OK
Content-Type: text/plain

-----BEGIN X509 CRL-----
MIICdzBhAgEBMA0GCSqGSIb3DQEBBQUAMB8xHTAbBgNVBAMMFFB1cHBldCBDQTog
bG9jYWxob3N0Fw0xMzA3MTYyMDQ4NDJaFw0xODA3MTUyMDQ4NDNaoA4wDDAKBgNV
HRQEAwIBADANBgkqhkiG9w0BAQUFAAOCAgEAqyBJOy3dtCOcrb0Fu7ZOOiDQnarg
IzXUV/ug1dauPEVyURLNNr+CJrr89QZnU/71lqgpWTN/J47mO/lffMSPjmINE+ng
XzOffm0qCG2+gNyaOBOdEmQTLdHPIXvcm7T+wEqc7XFW2tjEdpEubZgweruU/+DB
RX6/PhFbalQ0bKcMeFLzLAD4mmtBaQCJISmUUFWx1pyCS6pgBtQ1bNy3PJPN2PNW
YpDf3DNZ16vrAJ4a4SzXLXCoONw0MGxZcS6/hctJ75Vz+dTMrArKwckytWgQS/5e
c/1/wlMZn4xlho+EcIPMPfCB5hW1qzGU2WjUakTVxzF4goamnfFuKbHKEoXVOo9C
3dEQ9un4Uyd1xHxj8WvQck79In5/S2l9hdqp4eud4BaYB6tNRKxlUntSCvCNriR2
wrDNsMuQ5+KJReG51vM0OzzKmlScgIHaqbVeNFZI9X6TpsO2bLEZX2xyqKw4xrre
OIEZRoJrmX3VQ/4u9hj14Qbt72/khYo6z/Fckc5zVD+dW4fjP2ztVTSPzBqIK3+H
zAgewYW6cJ6Aan8GSl3IfRqj6WlOubWj8Gr1U0dOE7SkBX6w/X61uqsHrOyg/E/Z
0Wcz/V+W5iZxa4Spm0x4sfpNzf/bNmjTe4M2MXyn/hXx5MdHf/HZdhOs/lzwKUGL
kEwcy38d6hYtUjs=
-----END X509 CRL-----

> openssl crl -inform PEM -in empty.crl -text -noout
Certificate Revocation List (CRL):
        Version 2 (0x1)
        Signature Algorithm: sha1WithRSAEncryption
        Issuer: /CN=Puppet CA: localhost
        Last Update: Jul 16 20:48:42 2013 GMT
        Next Update: Jul 15 20:48:43 2018 GMT
        CRL extensions:
            X509v3 CRL Number:
                0
No Revoked Certificates.
    Signature Algorithm: sha1WithRSAEncryption
        ab:20:49:3b:2d:dd:b4:23:9c:ad:bd:05:bb:b6:4e:3a:20:d0:
        9d:aa:e0:23:35:d4:57:fb:a0:d5:d6:ae:3c:45:72:51:12:cd:
        36:bf:82:26:ba:fc:f5:06:67:53:fe:f5:96:a8:29:59:33:7f:
        27:8e:e6:3b:f9:5f:7c:c4:8f:8e:62:0d:13:e9:e0:5f:33:9f:
        7e:6d:2a:08:6d:be:80:dc:9a:38:13:9d:12:64:13:2d:d1:cf:
        21:7b:dc:9b:b4:fe:c0:4a:9c:ed:71:56:da:d8:c4:76:91:2e:
        6d:98:30:7a:bb:94:ff:e0:c1:45:7e:bf:3e:11:5b:6a:54:34:
        6c:a7:0c:78:52:f3:2c:00:f8:9a:6b:41:69:00:89:21:29:94:
        50:55:b1:d6:9c:82:4b:aa:60:06:d4:35:6c:dc:b7:3c:93:cd:
        d8:f3:56:62:90:df:dc:33:59:d7:ab:eb:00:9e:1a:e1:2c:d7:
        2d:70:a8:38:dc:34:30:6c:59:71:2e:bf:85:cb:49:ef:95:73:
        f9:d4:cc:ac:0a:ca:c1:c9:32:b5:68:10:4b:fe:5e:73:fd:7f:
        c2:53:19:9f:8c:65:86:8f:84:70:83:cc:3d:f0:81:e6:15:b5:
        ab:31:94:d9:68:d4:6a:44:d5:c7:31:78:82:86:a6:9d:f1:6e:
        29:b1:ca:12:85:d5:3a:8f:42:dd:d1:10:f6:e9:f8:53:27:75:
        c4:7c:63:f1:6b:d0:72:4e:fd:22:7e:7f:4b:69:7d:85:da:a9:
        e1:eb:9d:e0:16:98:07:ab:4d:44:ac:65:52:7b:52:0a:f0:8d:
        ae:24:76:c2:b0:cd:b0:cb:90:e7:e2:89:45:e1:b9:d6:f3:34:
        3b:3c:ca:9a:54:9c:80:81:da:a9:b5:5e:34:56:48:f5:7e:93:
        a6:c3:b6:6c:b1:19:5f:6c:72:a8:ac:38:c6:ba:de:38:81:19:
        46:82:6b:99:7d:d5:43:fe:2e:f6:18:f5:e1:06:ed:ef:6f:e4:
        85:8a:3a:cf:f1:5c:91:ce:73:54:3f:9d:5b:87:e3:3f:6c:ed:
        55:34:8f:cc:1a:88:2b:7f:87:cc:08:1e:c1:85:ba:70:9e:80:
        6a:7f:06:4a:5d:c8:7d:1a:a3:e9:69:4e:b9:b5:a3:f0:6a:f5:
        53:47:4e:13:b4:a4:05:7e:b0:fd:7e:b5:ba:ab:07:ac:ec:a0:
        fc:4f:d9:d1:67:33:fd:5f:96:e6:26:71:6b:84:a9:9b:4c:78:
        b1:fa:4d:cd:ff:db:36:68:d3:7b:83:36:31:7c:a7:fe:15:f1:
        e4:c7:47:7f:f1:d9:76:13:ac:fe:5c:f0:29:41:8b:90:4c:1c:
        cb:7f:1d:ea:16:2d:52:3bOne-item revocation list
GET /puppet-ca/v1/certificate_revocation_list/ca

HTTP/1.1 200 OK
Content-Type: text/plain

-----BEGIN X509 CRL-----
MIICnDCBhQIBATANBgkqhkiG9w0BAQUFADAfMR0wGwYDVQQDDBRQdXBwZXQgQ0E6
IGxvY2FsaG9zdBcNMTMxMDA3MTk0ODQwWhcNMTgxMDA2MTk0ODQxWjAiMCACAQUX
DTEzMTAwNzE5NDg0MVowDDAKBgNVHRUEAwoBAaAOMAwwCgYDVR0UBAMCAQEwDQYJ
KoZIhvcNAQEFBQADggIBALrh49WNdmrJOPCRntD1nxCObmqZgl8ZwTv7TO9VkmCG
Ksvo8zR2aTIOH9VUKqWrE0squhtFJXl8dxL4PR1RiLbmhO7dp+NHdu8ejTQpoOTp
h69xbQFT3oHcIdn2cBGrLJQcZgXsiswT0KJ8nuw6eDO93yXDrguSUdou99M99wTw
2nn1kUQKW9b0vUI7t2ADF5U8/DES+1IrvBq2IEHmg4+ekZRCxeJMuqd1R13gymcJ
osSPbRgIjCli6zD3aK4Nq5OMMpVLV/VVPwyQb4GwW4Wj5iyNAp8d/EAqtZ21ZHUi
nvuXmRtUWHJwfi40D5T2GQXxuUjB4pnh8cFq7f89iUvqoCwFo7nRIacrrweNFMYD
GxVJVMfz4PkP66ckIPQ5Uuey92dg5p2w4b2cp8NstxMdgcc3KAF483ItKA8uIDuU
1dbzw1v2k5qUjoImueHwKolbLmPyYmvFp7hbnV+WpFbvGjyIfW3BMankDEv4ig0L
MCw6n2GKv1hSWM6Mrk8Ja1yYOFLsjI0RoVCZsf1iNiRT28haldXVTPyNtct9mGAv
6az5W/nyixIPrrHubTx28zhmuHZx6y3hQMCLmuYOT+e7F/eFsYXVEjuJjxjr33uA
O/ii4EkTls1gzvonOtoBoGElzQAogrZI3HXCwFYvU2whLKr9cwv5bpRkUfPCMQ4n
-----END X509 CRL-----

> openssl crl -inform PEM -in 1revoked.crl -text -noout
Certificate Revocation List (CRL):
        Version 2 (0x1)
        Signature Algorithm: sha1WithRSAEncryption
        Issuer: /CN=Puppet CA: localhost
        Last Update: Oct  7 19:48:40 2013 GMT
        Next Update: Oct  6 19:48:41 2018 GMT
        CRL extensions:
            X509v3 CRL Number:
                1
Revoked Certificates:
    Serial Number: 05
        Revocation Date: Oct  7 19:48:41 2013 GMT
        CRL entry extensions:
            X509v3 CRL Reason Code:
                Key Compromise
    Signature Algorithm: sha1WithRSAEncryption
        ba:e1:e3:d5:8d:76:6a:c9:38:f0:91:9e:d0:f5:9f:10:8e:6e:
        6a:99:82:5f:19:c1:3b:fb:4c:ef:55:92:60:86:2a:cb:e8:f3:
        34:76:69:32:0e:1f:d5:54:2a:a5:ab:13:4b:2a:ba:1b:45:25:
        79:7c:77:12:f8:3d:1d:51:88:b6:e6:84:ee:dd:a7:e3:47:76:
        ef:1e:8d:34:29:a0:e4:e9:87:af:71:6d:01:53:de:81:dc:21:
        d9:f6:70:11:ab:2c:94:1c:66:05:ec:8a:cc:13:d0:a2:7c:9e:
        ec:3a:78:33:bd:df:25:c3:ae:0b:92:51:da:2e:f7:d3:3d:f7:
        04:f0:da:79:f5:91:44:0a:5b:d6:f4:bd:42:3b:b7:60:03:17:
        95:3c:fc:31:12:fb:52:2b:bc:1a:b6:20:41:e6:83:8f:9e:91:
        94:42:c5:e2:4c:ba:a7:75:47:5d:e0:ca:67:09:a2:c4:8f:6d:
        18:08:8c:29:62:eb:30:f7:68:ae:0d:ab:93:8c:32:95:4b:57:
        f5:55:3f:0c:90:6f:81:b0:5b:85:a3:e6:2c:8d:02:9f:1d:fc:
        40:2a:b5:9d:b5:64:75:22:9e:fb:97:99:1b:54:58:72:70:7e:
        2e:34:0f:94:f6:19:05:f1:b9:48:c1:e2:99:e1:f1:c1:6a:ed:
        ff:3d:89:4b:ea:a0:2c:05:a3:b9:d1:21:a7:2b:af:07:8d:14:
        c6:03:1b:15:49:54:c7:f3:e0:f9:0f:eb:a7:24:20:f4:39:52:
        e7:b2:f7:67:60:e6:9d:b0:e1:bd:9c:a7:c3:6c:b7:13:1d:81:
        c7:37:28:01:78:f3:72:2d:28:0f:2e:20:3b:94:d5:d6:f3:c3:
        5b:f6:93:9a:94:8e:82:26:b9:e1:f0:2a:89:5b:2e:63:f2:62:
        6b:c5:a7:b8:5b:9d:5f:96:a4:56:ef:1a:3c:88:7d:6d:c1:31:
        a9:e4:0c:4b:f8:8a:0d:0b:30:2c:3a:9f:61:8a:bf:58:52:58:
        ce:8c:ae:4f:09:6b:5c:98:38:52:ec:8c:8d:11:a1:50:99:b1:
        fd:62:36:24:53:db:c8:5a:95:d5:d5:4c:fc:8d:b5:cb:7d:98:
        60:2f:e9:ac:f9:5b:f9:f2:8b:12:0f:ae:b1:ee:6d:3c:76:f3:
        38:66:b8:76:71:eb:2d:e1:40:c0:8b:9a:e6:0e:4f:e7:bb:17:
        f7:85:b1:85:d5:12:3b:89:8f:18:eb:df:7b:80:3b:f8:a2:e0:
        49:13:96:cd:60:ce:fa:27:3a:da:01:a0:61:25:cd:00:28:82:
        b6:48:dc:75:c2:c0:56:2f:53:6c:21:2c:aa:fd:73:0b:f9:6e:
        94:64:51:f3:c2:31:0e:27No node name given
GET /puppet-ca/v1/certificate_revocation_list

HTTP/1.1 400 Bad Request
Content-Type: text/plain

No request key specified in /puppet-ca/v1/certificate_revocation_listUpdate upstream CRLs

If your organization's CRLs require frequent updating, you can use the following endpoint to insert updated copies of your CRLs into the trust chain:
PUT /puppet-ca/v1/certificate_revocation_list
accept: text/plain
This endpoint accepts a list of CRL PEMs as a body and updates the matching CRLs saved on disk if the submitted ones have a higher CRL number than their counterparts.
Note that it cannot be used to replace the leaf CRL (the one used to track certificates revoked by the Puppet Intermediate CA certificate), only CRLs further up
the chain, which correspond to certs belonging to your organization's PKI. If an updated version of the Puppet leaf CRL is submitted in the body, it is ignored.
Note: If you are using curl to submit to this endpoint, use the data-binary flag for the body, instead of the data flag. The data-binary flag preserves newlines
in the request body, which is required for the CRLs to be parsed correctly.

Supported HTTP Methods
PUTSupported Response Formats
text/plainParameters
No parameters, only the body which contains the contents of the CRL updateExample

PUT /puppet-ca/v1/certificate_revocation_list

BODY
-----BEGIN X509 CRL-----
MIIBizB1AgEBMA0GCSqGSIb3DQEBCwUAMBIxEDAOBgNVBAMTB1Jvb3QgQ0EXDTIx
MDUxMzE3MTAyOFoXDTI2MDUxMzE3MTAyOFqgLzAtMB8GA1UdIwQYMBaAFIAc7NI2
Jesrcny7yh8B2fzCEte7MAoGA1UdFAQDAgEBMA0GCSqGSIb3DQEBCwUAA4IBAQAn
j87vWjd9qr9BZq2rf92Ku/owQlAJTHwIPAKmmUyzMF+Aw0P2nlF7FPDiOaXXGm9x
KWwstCaefp4jbru+pD5cH/UFSCyLBuUlfzqtMvF4SL7/CjGZa4W3WW4a+fqlv/HI
U8Wxjqa00LBV77rqJm54z2QUlqgCPD/7r2Pqy5rrfrZTGGy58727whtSsV5sAWOw
kxzRogsSm23Uh4//lmEx0BYJYTaz+HdWaEckpJU1S3DfBBrh5Rv2AG/OjsRfUvgC
tB0SGdKL0EM8KG4GxbeXTvq8HuTKUp2HaWvGWpdojyxqwwiAtNaOHt76qpBkRe3f
igWihATMaKzytX4xXk1C
-----END X509 CRL-----

HTTP/1.1 200 OK
Content-Type: text/plain

Successfully updated CRLs
PUT /puppet/ca/v1/certificate_revocation_list

BODY
 ----BEGIN X509 CRL-----
 Invalid CRL Content
 ----END X509 CRL------

HTTP/1.1 400 Bad Request
Content-Type: text/plain

No valid CRLs submitted
 




          Was this page helpful?
        
Yes
No







              Don’t fill this out if you’re human: 






Thank you for your feedback!

            Feel free to add a comment or suggestion.
            





Send
Please enter your feedback





              Don’t fill this out if you’re human: 







            We’re sorry to hear that! 
            Please tell us why so we can help.
          

            Enter your feedback and email. This form is sent to the Puppet docs team.
            We ask for your email as we might contact you regarding your feedback.
          

            If you need help with the product itself, visit Puppet Support
            or ask in Puppet Community on Slack.
          

            Feedback:
            






            Email Address:
            






            To learn about how Puppet uses your personal information,
            visit our privacy policy.
          


Send
Please enter your feedback and contact email

          If you leave us your email, we may contact you regarding your feedback.
          For more information on how Puppet uses your personal information, see
          our
          privacy policy.
        





            Don’t fill this out if you’re human: 








    See an issue? Please file a JIRA ticket in our
    [DOCUMENTATION]
      project.
  











Puppet by Perforce gives IT operations teams back their time and offers peace of mind with infrastructure automation that enables security and compliance.






Legal
Privacy Policy
Terms of Use
Security


©  Puppet, Inc., a Perforce company. All rights reserved.




Puppet and other identified trademarks are the property of Puppet, Inc., Perforce Software, Inc., or an affiliate. Such trademarks are claimed and/or registered in the U.S. and other countries and regions. All third-party trademarks are the property of their respective holders. References to third-party trademarks do not imply endorsement or sponsorship of any products or services by the trademark holder. Contact Puppet, Inc., for further details.

